; Function Attrs: mustprogress uwtable
define noundef zeroext i1 @_ZN7rocksdb18OnDemandFileSystem18CheckPathAndAdjustERKNSt7__cxx1112basic_stringIcSt11char_traitsIcESaIcEEES8_RS6_(ptr noundef nonnull readnone align 8 captures(none) dereferenceable(112) %0, ptr noundef nonnull readonly align 8 captures(none) dereferenceable(32) %1, ptr noundef nonnull readonly align 8 captures(none) dereferenceable(32) %2, ptr noundef nonnull align 8 dereferenceable(32) %3) local_unnamed_addr #0 align 2 personality ptr @__gxx_personality_v0 {
  %5 = load ptr, ptr %1, align 8, !tbaa !4
  %6 = getelementptr inbounds nuw i8, ptr %1, i64 8
  %7 = load i64, ptr %6, align 8, !tbaa !12
  %8 = tail call noundef i64 @_ZNKSt7__cxx1112basic_stringIcSt11char_traitsIcESaIcEE4findEPKcmm(ptr noundef nonnull align 8 dereferenceable(32) %3, ptr noundef %5, i64 noundef 0, i64 noundef %7) #22
  %.not = icmp eq i64 %8, 0
  br i1 %.not, label %9, label %17

9:                                                ; preds = %4
  %10 = load i64, ptr %6, align 8, !tbaa !12
  %11 = getelementptr inbounds nuw i8, ptr %3, i64 8
  %12 = load i64, ptr %11, align 8, !tbaa !12
  %13 = getelementptr inbounds nuw i8, ptr %2, i64 8
  %14 = load i64, ptr %13, align 8, !tbaa !12
  %15 = load ptr, ptr %2, align 8, !tbaa !4
  %spec.select.i.i.i = tail call noundef i64 @llvm.umin.i64(i64 %10, i64 %12)
  %16 = tail call noundef nonnull align 8 dereferenceable(32) ptr @_ZNSt7__cxx1112basic_stringIcSt11char_traitsIcESaIcEE10_M_replaceEmmPKcm(ptr noundef nonnull align 8 dereferenceable(32) %3, i64 noundef 0, i64 noundef %spec.select.i.i.i, ptr noundef %15, i64 noundef %14)
  br label %17

17:                                               ; preds = %4, %9
  ret i1 %.not
}